#include <math.h>
#include <stdio.h>
#include <stdlib.h>
#include <string.h>

int main(){
char a[100][100];
	char b[100],c[100],d;
	int i,n;
	for(i=0;;i++){
		scanf("%s",a[i]);
		scanf("%c",&d);
		if(d==10){
			break;
		}
	}
	scanf("%s",b);
	scanf("%s",c);
	for(n=0;n<i+1;n++){
		if(strcmp(a[n],b)==0){
		strcpy(a[n],c);	
			}
	}
	
	for(n=0;n<i;n++){
		printf("%s ",a[n]);
	}
	printf("%s",a[i]);
	return 0;
}
	