; ModuleID = 'source-C-CXX/18/874.c'
source_filename = "source-C-CXX/18/874.c"
target datalayout = "e-m:e-p270:32:32-p271:32:32-p272:64:64-i64:64-f80:128-n8:16:32:64-S128"
target triple = "x86_64-pc-linux-gnu"

@.str = private unnamed_addr constant [3 x i8] c"%s\00", align 1
@.str.1 = private unnamed_addr constant [3 x i8] c"%c\00", align 1
@.str.2 = private unnamed_addr constant [4 x i8] c"%s \00", align 1

; Function Attrs: nofree nounwind sspstrong uwtable
define dso_local i32 @main() local_unnamed_addr #0 {
  %1 = alloca [100 x [100 x i8]], align 16
  %2 = alloca [100 x i8], align 16
  %3 = alloca [100 x i8], align 16
  %4 = alloca i8, align 1
  %5 = getelementptr inbounds [100 x [100 x i8]], [100 x [100 x i8]]* %1, i64 0, i64 0, i64 0
  call void @llvm.lifetime.start.p0i8(i64 10000, i8* nonnull %5) #5
  %6 = getelementptr inbounds [100 x i8], [100 x i8]* %2, i64 0, i64 0
  call void @llvm.lifetime.start.p0i8(i64 100, i8* nonnull %6) #5
  %7 = getelementptr inbounds [100 x i8], [100 x i8]* %3, i64 0, i64 0
  call void @llvm.lifetime.start.p0i8(i64 100, i8* nonnull %7) #5
  call void @llvm.lifetime.start.p0i8(i64 1, i8* nonnull %4) #5
  br label %8

8:                                                ; preds = %8, %0
  %9 = phi i64 [ %15, %8 ], [ 0, %0 ]
  %10 = getelementptr inbounds [100 x [100 x i8]], [100 x [100 x i8]]* %1, i64 0, i64 %9, i64 0
  %11 = call i32 (i8*, ...) @__isoc99_scanf(i8* getelementptr inbounds ([3 x i8], [3 x i8]* @.str, i64 0, i64 0), i8* nonnull %10)
  %12 = call i32 (i8*, ...) @__isoc99_scanf(i8* getelementptr inbounds ([3 x i8], [3 x i8]* @.str.1, i64 0, i64 0), i8* nonnull %4)
  %13 = load i8, i8* %4, align 1, !tbaa !5
  %14 = icmp eq i8 %13, 10
  %15 = add nuw i64 %9, 1
  br i1 %14, label %16, label %8

16:                                               ; preds = %8
  %17 = trunc i64 %9 to i32
  %18 = call i32 (i8*, ...) @__isoc99_scanf(i8* getelementptr inbounds ([3 x i8], [3 x i8]* @.str, i64 0, i64 0), i8* nonnull %6)
  %19 = call i32 (i8*, ...) @__isoc99_scanf(i8* getelementptr inbounds ([3 x i8], [3 x i8]* @.str, i64 0, i64 0), i8* nonnull %7)
  %20 = add i64 %9, 1
  %21 = and i64 %20, 4294967295
  br label %26

22:                                               ; preds = %33
  %23 = icmp eq i32 %17, 0
  br i1 %23, label %42, label %24

24:                                               ; preds = %22
  %25 = and i64 %9, 4294967295
  br label %36

26:                                               ; preds = %16, %33
  %27 = phi i64 [ 0, %16 ], [ %34, %33 ]
  %28 = getelementptr inbounds [100 x [100 x i8]], [100 x [100 x i8]]* %1, i64 0, i64 %27, i64 0
  %29 = call i32 @strcmp(i8* noundef nonnull %28, i8* noundef nonnull %6) #6
  %30 = icmp eq i32 %29, 0
  br i1 %30, label %31, label %33

31:                                               ; preds = %26
  %32 = call i8* @strcpy(i8* noundef nonnull %28, i8* noundef nonnull %7) #5
  br label %33

33:                                               ; preds = %26, %31
  %34 = add nuw nsw i64 %27, 1
  %35 = icmp eq i64 %34, %21
  br i1 %35, label %22, label %26, !llvm.loop !8

36:                                               ; preds = %24, %36
  %37 = phi i64 [ 0, %24 ], [ %40, %36 ]
  %38 = getelementptr inbounds [100 x [100 x i8]], [100 x [100 x i8]]* %1, i64 0, i64 %37, i64 0
  %39 = call i32 (i8*, ...) @printf(i8* nonnull dereferenceable(1) getelementptr inbounds ([4 x i8], [4 x i8]* @.str.2, i64 0, i64 0), i8* nonnull %38)
  %40 = add nuw nsw i64 %37, 1
  %41 = icmp eq i64 %40, %25
  br i1 %41, label %42, label %36, !llvm.loop !10

42:                                               ; preds = %36, %22
  %43 = call i32 (i8*, ...) @printf(i8* nonnull dereferenceable(1) getelementptr inbounds ([3 x i8], [3 x i8]* @.str, i64 0, i64 0), i8* nonnull %10)
  call void @llvm.lifetime.end.p0i8(i64 1, i8* nonnull %4) #5
  call void @llvm.lifetime.end.p0i8(i64 100, i8* nonnull %7) #5
  call void @llvm.lifetime.end.p0i8(i64 100, i8* nonnull %6) #5
  call void @llvm.lifetime.end.p0i8(i64 10000, i8* nonnull %5) #5
  ret i32 0
}

; Function Attrs: argmemonly mustprogress nofree nosync nounwind willreturn
declare void @llvm.lifetime.start.p0i8(i64 immarg, i8* nocapture) #1

; Function Attrs: nofree nounwind
declare noundef i32 @__isoc99_scanf(i8* nocapture noundef readonly, ...) local_unnamed_addr #2

; Function Attrs: argmemonly mustprogress nofree nounwind readonly willreturn
declare i32 @strcmp(i8* nocapture, i8* nocapture) local_unnamed_addr #3

; Function Attrs: argmemonly mustprogress nofree nounwind willreturn
declare i8* @strcpy(i8* noalias returned writeonly, i8* noalias nocapture readonly) local_unnamed_addr #4

; Function Attrs: nofree nounwind
declare noundef i32 @printf(i8* nocapture noundef readonly, ...) local_unnamed_addr #2

; Function Attrs: argmemonly mustprogress nofree nosync nounwind willreturn
declare void @llvm.lifetime.end.p0i8(i64 immarg, i8* nocapture) #1


!llvm.module.flags = !{!0, !1, !2, !3}
!llvm.ident = !{!4}

!0 = !{i32 1, !"wchar_size", i32 4}
!1 = !{i32 7, !"PIC Level", i32 2}
!2 = !{i32 7, !"PIE Level", i32 2}
!3 = !{i32 7, !"uwtable", i32 1}
!4 = !{!"clang version 13.0.0"}
!5 = !{!6, !6, i64 0}
!6 = !{!"omnipotent char", !7, i64 0}
!7 = !{!"Simple C/C++ TBAA"}
!8 = distinct !{!8, !9}
!9 = !{!"llvm.loop.mustprogress"}
!10 = distinct !{!10, !9}
